; Function Attrs: mustprogress nofree nounwind willreturn memory(read) uwtable
define dso_local noundef zeroext i1 @_ZNK4llvm15TypeSetByHwMode10isPossibleEv(ptr noundef nonnull readonly align 8 dereferenceable(56) %0) local_unnamed_addr #3 align 2 {
  %2 = getelementptr inbounds i8, ptr %0, i64 24
  %3 = load ptr, ptr %2, align 8
  %4 = getelementptr inbounds i8, ptr %0, i64 8
  %.not27 = icmp eq ptr %3, %4
  br i1 %.not27, label %.loopexit, label %.preheader

.preheader:                                       ; preds = %1, %.critedge
  %.sroa.019.026 = phi ptr [ %8, %.critedge ], [ %3, %1 ]
  br label %6

5:                                                ; preds = %6
  %.016.add = add nuw nsw i64 %.016.idx25, 8
  %.not = icmp eq i64 %.016.add, 104
  br i1 %.not, label %.critedge, label %6

6:                                                ; preds = %.preheader, %5
  %.016.idx25 = phi i64 [ 40, %.preheader ], [ %.016.add, %5 ]
  %.016.ptr = getelementptr inbounds i8, ptr %.sroa.019.026, i64 %.016.idx25
  %7 = load i64, ptr %.016.ptr, align 8
  %.not18 = icmp eq i64 %7, 0
  br i1 %.not18, label %5, label %.loopexit

.critedge:                                        ; preds = %5
  %8 = tail call noundef ptr @_ZSt18_Rb_tree_incrementPKSt18_Rb_tree_node_base(ptr noundef nonnull %.sroa.019.026) #30
  %.not28 = icmp eq ptr %8, %4
  br i1 %.not28, label %.loopexit, label %.preheader

.loopexit:                                        ; preds = %.critedge, %6, %1
  %9 = phi i1 [ false, %1 ], [ true, %6 ], [ false, %.critedge ]
  ret i1 %9
}